; ModuleID = '2/770.c'
source_filename = "2/770.c"
target datalayout = "e-m:e-p270:32:32-p271:32:32-p272:64:64-i64:64-f80:128-n8:16:32:64-S128"
target triple = "x86_64-pc-linux-gnu"

%struct.book = type { i32, [26 x i8] }

@.str = private unnamed_addr constant [3 x i8] c"%d\00", align 1
@.str.1 = private unnamed_addr constant [6 x i8] c"%d %s\00", align 1
@.str.2 = private unnamed_addr constant [7 x i8] c"%c\0A%d\0A\00", align 1
@.str.3 = private unnamed_addr constant [4 x i8] c"%d\0A\00", align 1

; Function Attrs: noinline nounwind uwtable
define dso_local void @main() #0 {
  %1 = alloca i32, align 4
  %2 = alloca i32, align 4
  %3 = alloca i32, align 4
  %4 = alloca i32, align 4
  %5 = alloca i32, align 4
  %6 = alloca [26 x i32], align 16
  %7 = alloca i8, align 1
  %8 = alloca [1024 x %struct.book], align 16
  %9 = alloca i8*, align 8
  %10 = alloca i8*, align 8
  store i32 0, i32* %4, align 4
  %11 = bitcast [26 x i32]* %6 to i8*
  call void @llvm.memset.p0i8.i64(i8* align 16 %11, i8 0, i64 104, i1 false)
  %12 = getelementptr inbounds [1024 x %struct.book], [1024 x %struct.book]* %8, i64 0, i64 0
  %13 = getelementptr inbounds %struct.book, %struct.book* %12, i32 0, i32 1
  %14 = getelementptr inbounds [26 x i8], [26 x i8]* %13, i64 0, i64 0
  store i8* %14, i8** %9, align 8
  %15 = call i32 (i8*, ...) @__isoc99_scanf(i8* getelementptr inbounds ([3 x i8], [3 x i8]* @.str, i64 0, i64 0), i32* %2)
  store i32 0, i32* %3, align 4
  br label %16

16:                                               ; preds = %31, %0
  %17 = load i32, i32* %3, align 4
  %18 = load i32, i32* %2, align 4
  %19 = icmp slt i32 %17, %18
  br i1 %19, label %20, label %34

20:                                               ; preds = %16
  %21 = load i32, i32* %3, align 4
  %22 = sext i32 %21 to i64
  %23 = getelementptr inbounds [1024 x %struct.book], [1024 x %struct.book]* %8, i64 0, i64 %22
  %24 = getelementptr inbounds %struct.book, %struct.book* %23, i32 0, i32 0
  %25 = load i32, i32* %3, align 4
  %26 = sext i32 %25 to i64
  %27 = getelementptr inbounds [1024 x %struct.book], [1024 x %struct.book]* %8, i64 0, i64 %26
  %28 = getelementptr inbounds %struct.book, %struct.book* %27, i32 0, i32 1
  %29 = getelementptr inbounds [26 x i8], [26 x i8]* %28, i64 0, i64 0
  %30 = call i32 (i8*, ...) @__isoc99_scanf(i8* getelementptr inbounds ([6 x i8], [6 x i8]* @.str.1, i64 0, i64 0), i32* %24, i8* %29)
  br label %31

31:                                               ; preds = %20
  %32 = load i32, i32* %3, align 4
  %33 = add nsw i32 %32, 1
  store i32 %33, i32* %3, align 4
  br label %16

34:                                               ; preds = %16
  store i32 0, i32* %3, align 4
  br label %35

35:                                               ; preds = %64, %34
  %36 = load i32, i32* %3, align 4
  %37 = load i32, i32* %2, align 4
  %38 = icmp slt i32 %36, %37
  br i1 %38, label %39, label %67

39:                                               ; preds = %35
  %40 = load i32, i32* %3, align 4
  %41 = sext i32 %40 to i64
  %42 = getelementptr inbounds [1024 x %struct.book], [1024 x %struct.book]* %8, i64 0, i64 %41
  %43 = getelementptr inbounds %struct.book, %struct.book* %42, i32 0, i32 1
  %44 = getelementptr inbounds [26 x i8], [26 x i8]* %43, i64 0, i64 0
  store i8* %44, i8** %9, align 8
  br label %45

45:                                               ; preds = %60, %39
  %46 = load i8*, i8** %9, align 8
  %47 = load i8, i8* %46, align 1
  %48 = sext i8 %47 to i32
  %49 = icmp ne i32 %48, 0
  br i1 %49, label %50, label %63

50:                                               ; preds = %45
  %51 = load i8*, i8** %9, align 8
  %52 = load i8, i8* %51, align 1
  %53 = sext i8 %52 to i32
  store i32 %53, i32* %1, align 4
  %54 = load i32, i32* %1, align 4
  %55 = sub nsw i32 %54, 65
  %56 = sext i32 %55 to i64
  %57 = getelementptr inbounds [26 x i32], [26 x i32]* %6, i64 0, i64 %56
  %58 = load i32, i32* %57, align 4
  %59 = add nsw i32 %58, 1
  store i32 %59, i32* %57, align 4
  br label %60

60:                                               ; preds = %50
  %61 = load i8*, i8** %9, align 8
  %62 = getelementptr inbounds i8, i8* %61, i32 1
  store i8* %62, i8** %9, align 8
  br label %45

63:                                               ; preds = %45
  br label %64

64:                                               ; preds = %63
  %65 = load i32, i32* %3, align 4
  %66 = add nsw i32 %65, 1
  store i32 %66, i32* %3, align 4
  br label %35

67:                                               ; preds = %35
  store i32 0, i32* %3, align 4
  br label %68

68:                                               ; preds = %87, %67
  %69 = load i32, i32* %3, align 4
  %70 = icmp slt i32 %69, 26
  br i1 %70, label %71, label %90

71:                                               ; preds = %68
  %72 = load i32, i32* %4, align 4
  %73 = load i32, i32* %3, align 4
  %74 = sext i32 %73 to i64
  %75 = getelementptr inbounds [26 x i32], [26 x i32]* %6, i64 0, i64 %74
  %76 = load i32, i32* %75, align 4
  %77 = icmp slt i32 %72, %76
  br i1 %77, label %78, label %86

78:                                               ; preds = %71
  %79 = load i32, i32* %3, align 4
  %80 = sext i32 %79 to i64
  %81 = getelementptr inbounds [26 x i32], [26 x i32]* %6, i64 0, i64 %80
  %82 = load i32, i32* %81, align 4
  store i32 %82, i32* %4, align 4
  %83 = load i32, i32* %3, align 4
  %84 = add nsw i32 65, %83
  %85 = trunc i32 %84 to i8
  store i8 %85, i8* %7, align 1
  br label %86

86:                                               ; preds = %78, %71
  br label %87

87:                                               ; preds = %86
  %88 = load i32, i32* %3, align 4
  %89 = add nsw i32 %88, 1
  store i32 %89, i32* %3, align 4
  br label %68

90:                                               ; preds = %68
  %91 = load i8, i8* %7, align 1
  %92 = sext i8 %91 to i32
  %93 = load i32, i32* %4, align 4
  %94 = call i32 (i8*, ...) @printf(i8* getelementptr inbounds ([7 x i8], [7 x i8]* @.str.2, i64 0, i64 0), i32 %92, i32 %93)
  store i32 0, i32* %3, align 4
  br label %95

95:                                               ; preds = %129, %90
  %96 = load i32, i32* %3, align 4
  %97 = load i32, i32* %2, align 4
  %98 = icmp slt i32 %96, %97
  br i1 %98, label %99, label %132

99:                                               ; preds = %95
  %100 = load i32, i32* %3, align 4
  %101 = sext i32 %100 to i64
  %102 = getelementptr inbounds [1024 x %struct.book], [1024 x %struct.book]* %8, i64 0, i64 %101
  %103 = getelementptr inbounds %struct.book, %struct.book* %102, i32 0, i32 1
  %104 = getelementptr inbounds [26 x i8], [26 x i8]* %103, i64 0, i64 0
  store i8* %104, i8** %10, align 8
  br label %105

105:                                              ; preds = %125, %99
  %106 = load i8*, i8** %10, align 8
  %107 = load i8, i8* %106, align 1
  %108 = sext i8 %107 to i32
  %109 = icmp ne i32 %108, 0
  br i1 %109, label %110, label %128

110:                                              ; preds = %105
  %111 = load i8*, i8** %10, align 8
  %112 = load i8, i8* %111, align 1
  %113 = sext i8 %112 to i32
  %114 = load i8, i8* %7, align 1
  %115 = sext i8 %114 to i32
  %116 = icmp eq i32 %113, %115
  br i1 %116, label %117, label %124

117:                                              ; preds = %110
  %118 = load i32, i32* %3, align 4
  %119 = sext i32 %118 to i64
  %120 = getelementptr inbounds [1024 x %struct.book], [1024 x %struct.book]* %8, i64 0, i64 %119
  %121 = getelementptr inbounds %struct.book, %struct.book* %120, i32 0, i32 0
  %122 = load i32, i32* %121, align 16
  %123 = call i32 (i8*, ...) @printf(i8* getelementptr inbounds ([4 x i8], [4 x i8]* @.str.3, i64 0, i64 0), i32 %122)
  br label %124

124:                                              ; preds = %117, %110
  br label %125

125:                                              ; preds = %124
  %126 = load i8*, i8** %10, align 8
  %127 = getelementptr inbounds i8, i8* %126, i32 1
  store i8* %127, i8** %10, align 8
  br label %105

128:                                              ; preds = %105
  br label %129

129:                                              ; preds = %128
  %130 = load i32, i32* %3, align 4
  %131 = add nsw i32 %130, 1
  store i32 %131, i32* %3, align 4
  br label %95

132:                                              ; preds = %95
  ret void
}

; Function Attrs: argmemonly nounwind willreturn
declare void @llvm.memset.p0i8.i64(i8* nocapture writeonly, i8, i64, i1 immarg) #1

declare dso_local i32 @__isoc99_scanf(i8*, ...) #2

declare dso_local i32 @printf(i8*, ...) #2


!llvm.module.flags = !{!0}
!llvm.ident = !{!1}

!0 = !{i32 1, !"wchar_size", i32 4}
!1 = !{!"clang version 10.0.0-4ubuntu1 "}
