; ModuleID = 'source-C-CXX/1/770.c'
source_filename = "source-C-CXX/1/770.c"
target datalayout = "e-m:e-p270:32:32-p271:32:32-p272:64:64-i64:64-f80:128-n8:16:32:64-S128"
target triple = "x86_64-pc-linux-gnu"

%struct.book = type { i32, [26 x i8] }

@.str = private unnamed_addr constant [3 x i8] c"%d\00", align 1
@.str.1 = private unnamed_addr constant [6 x i8] c"%d %s\00", align 1
@.str.2 = private unnamed_addr constant [7 x i8] c"%c\0A%d\0A\00", align 1
@.str.3 = private unnamed_addr constant [4 x i8] c"%d\0A\00", align 1

; Function Attrs: nofree nounwind sspstrong uwtable
define dso_local void @main() local_unnamed_addr #0 {
  %1 = alloca i32, align 4
  %2 = alloca [26 x i32], align 16
  %3 = alloca [1024 x %struct.book], align 16
  %4 = bitcast i32* %1 to i8*
  call void @llvm.lifetime.start.p0i8(i64 4, i8* nonnull %4) #4
  %5 = bitcast [26 x i32]* %2 to i8*
  call void @llvm.lifetime.start.p0i8(i64 104, i8* nonnull %5) #4
  call void @llvm.memset.p0i8.i64(i8* noundef nonnull align 16 dereferenceable(104) %5, i8 0, i64 104, i1 false)
  %6 = bitcast [1024 x %struct.book]* %3 to i8*
  call void @llvm.lifetime.start.p0i8(i64 32768, i8* nonnull %6) #4
  %7 = call i32 (i8*, ...) @__isoc99_scanf(i8* getelementptr inbounds ([3 x i8], [3 x i8]* @.str, i64 0, i64 0), i32* nonnull %1)
  %8 = load i32, i32* %1, align 4, !tbaa !5
  %9 = icmp sgt i32 %8, 0
  br i1 %9, label %14, label %23

10:                                               ; preds = %14
  %11 = icmp sgt i32 %20, 0
  br i1 %11, label %12, label %23

12:                                               ; preds = %10
  %13 = zext i32 %20 to i64
  br label %157

14:                                               ; preds = %0, %14
  %15 = phi i64 [ %19, %14 ], [ 0, %0 ]
  %16 = getelementptr inbounds [1024 x %struct.book], [1024 x %struct.book]* %3, i64 0, i64 %15, i32 0
  %17 = getelementptr inbounds [1024 x %struct.book], [1024 x %struct.book]* %3, i64 0, i64 %15, i32 1, i64 0
  %18 = call i32 (i8*, ...) @__isoc99_scanf(i8* getelementptr inbounds ([6 x i8], [6 x i8]* @.str.1, i64 0, i64 0), i32* nonnull %16, i8* nonnull %17)
  %19 = add nuw nsw i64 %15, 1
  %20 = load i32, i32* %1, align 4, !tbaa !5
  %21 = sext i32 %20 to i64
  %22 = icmp slt i64 %19, %21
  br i1 %22, label %14, label %10, !llvm.loop !9

23:                                               ; preds = %173, %0, %10
  %24 = getelementptr inbounds [26 x i32], [26 x i32]* %2, i64 0, i64 0
  %25 = load i32, i32* %24, align 16, !tbaa !5
  %26 = icmp sgt i32 %25, 0
  %27 = select i1 %26, i32 %25, i32 0
  %28 = getelementptr inbounds [26 x i32], [26 x i32]* %2, i64 0, i64 1
  %29 = load i32, i32* %28, align 4, !tbaa !5
  %30 = icmp slt i32 %27, %29
  %31 = select i1 %30, i32 %29, i32 %27
  %32 = select i1 %30, i8 66, i8 65
  %33 = getelementptr inbounds [26 x i32], [26 x i32]* %2, i64 0, i64 2
  %34 = load i32, i32* %33, align 8, !tbaa !5
  %35 = icmp slt i32 %31, %34
  %36 = select i1 %35, i32 %34, i32 %31
  %37 = select i1 %35, i8 67, i8 %32
  %38 = getelementptr inbounds [26 x i32], [26 x i32]* %2, i64 0, i64 3
  %39 = load i32, i32* %38, align 4, !tbaa !5
  %40 = icmp slt i32 %36, %39
  %41 = select i1 %40, i32 %39, i32 %36
  %42 = select i1 %40, i8 68, i8 %37
  %43 = getelementptr inbounds [26 x i32], [26 x i32]* %2, i64 0, i64 4
  %44 = load i32, i32* %43, align 16, !tbaa !5
  %45 = icmp slt i32 %41, %44
  %46 = select i1 %45, i32 %44, i32 %41
  %47 = select i1 %45, i8 69, i8 %42
  %48 = getelementptr inbounds [26 x i32], [26 x i32]* %2, i64 0, i64 5
  %49 = load i32, i32* %48, align 4, !tbaa !5
  %50 = icmp slt i32 %46, %49
  %51 = select i1 %50, i32 %49, i32 %46
  %52 = select i1 %50, i8 70, i8 %47
  %53 = getelementptr inbounds [26 x i32], [26 x i32]* %2, i64 0, i64 6
  %54 = load i32, i32* %53, align 8, !tbaa !5
  %55 = icmp slt i32 %51, %54
  %56 = select i1 %55, i32 %54, i32 %51
  %57 = select i1 %55, i8 71, i8 %52
  %58 = getelementptr inbounds [26 x i32], [26 x i32]* %2, i64 0, i64 7
  %59 = load i32, i32* %58, align 4, !tbaa !5
  %60 = icmp slt i32 %56, %59
  %61 = select i1 %60, i32 %59, i32 %56
  %62 = select i1 %60, i8 72, i8 %57
  %63 = getelementptr inbounds [26 x i32], [26 x i32]* %2, i64 0, i64 8
  %64 = load i32, i32* %63, align 16, !tbaa !5
  %65 = icmp slt i32 %61, %64
  %66 = select i1 %65, i32 %64, i32 %61
  %67 = select i1 %65, i8 73, i8 %62
  %68 = getelementptr inbounds [26 x i32], [26 x i32]* %2, i64 0, i64 9
  %69 = load i32, i32* %68, align 4, !tbaa !5
  %70 = icmp slt i32 %66, %69
  %71 = select i1 %70, i32 %69, i32 %66
  %72 = select i1 %70, i8 74, i8 %67
  %73 = getelementptr inbounds [26 x i32], [26 x i32]* %2, i64 0, i64 10
  %74 = load i32, i32* %73, align 8, !tbaa !5
  %75 = icmp slt i32 %71, %74
  %76 = select i1 %75, i32 %74, i32 %71
  %77 = select i1 %75, i8 75, i8 %72
  %78 = getelementptr inbounds [26 x i32], [26 x i32]* %2, i64 0, i64 11
  %79 = load i32, i32* %78, align 4, !tbaa !5
  %80 = icmp slt i32 %76, %79
  %81 = select i1 %80, i32 %79, i32 %76
  %82 = select i1 %80, i8 76, i8 %77
  %83 = getelementptr inbounds [26 x i32], [26 x i32]* %2, i64 0, i64 12
  %84 = load i32, i32* %83, align 16, !tbaa !5
  %85 = icmp slt i32 %81, %84
  %86 = select i1 %85, i32 %84, i32 %81
  %87 = select i1 %85, i8 77, i8 %82
  %88 = getelementptr inbounds [26 x i32], [26 x i32]* %2, i64 0, i64 13
  %89 = load i32, i32* %88, align 4, !tbaa !5
  %90 = icmp slt i32 %86, %89
  %91 = select i1 %90, i32 %89, i32 %86
  %92 = select i1 %90, i8 78, i8 %87
  %93 = getelementptr inbounds [26 x i32], [26 x i32]* %2, i64 0, i64 14
  %94 = load i32, i32* %93, align 8, !tbaa !5
  %95 = icmp slt i32 %91, %94
  %96 = select i1 %95, i32 %94, i32 %91
  %97 = select i1 %95, i8 79, i8 %92
  %98 = getelementptr inbounds [26 x i32], [26 x i32]* %2, i64 0, i64 15
  %99 = load i32, i32* %98, align 4, !tbaa !5
  %100 = icmp slt i32 %96, %99
  %101 = select i1 %100, i32 %99, i32 %96
  %102 = select i1 %100, i8 80, i8 %97
  %103 = getelementptr inbounds [26 x i32], [26 x i32]* %2, i64 0, i64 16
  %104 = load i32, i32* %103, align 16, !tbaa !5
  %105 = icmp slt i32 %101, %104
  %106 = select i1 %105, i32 %104, i32 %101
  %107 = select i1 %105, i8 81, i8 %102
  %108 = getelementptr inbounds [26 x i32], [26 x i32]* %2, i64 0, i64 17
  %109 = load i32, i32* %108, align 4, !tbaa !5
  %110 = icmp slt i32 %106, %109
  %111 = select i1 %110, i32 %109, i32 %106
  %112 = select i1 %110, i8 82, i8 %107
  %113 = getelementptr inbounds [26 x i32], [26 x i32]* %2, i64 0, i64 18
  %114 = load i32, i32* %113, align 8, !tbaa !5
  %115 = icmp slt i32 %111, %114
  %116 = select i1 %115, i32 %114, i32 %111
  %117 = select i1 %115, i8 83, i8 %112
  %118 = getelementptr inbounds [26 x i32], [26 x i32]* %2, i64 0, i64 19
  %119 = load i32, i32* %118, align 4, !tbaa !5
  %120 = icmp slt i32 %116, %119
  %121 = select i1 %120, i32 %119, i32 %116
  %122 = select i1 %120, i8 84, i8 %117
  %123 = getelementptr inbounds [26 x i32], [26 x i32]* %2, i64 0, i64 20
  %124 = load i32, i32* %123, align 16, !tbaa !5
  %125 = icmp slt i32 %121, %124
  %126 = select i1 %125, i32 %124, i32 %121
  %127 = select i1 %125, i8 85, i8 %122
  %128 = getelementptr inbounds [26 x i32], [26 x i32]* %2, i64 0, i64 21
  %129 = load i32, i32* %128, align 4, !tbaa !5
  %130 = icmp slt i32 %126, %129
  %131 = select i1 %130, i32 %129, i32 %126
  %132 = select i1 %130, i8 86, i8 %127
  %133 = getelementptr inbounds [26 x i32], [26 x i32]* %2, i64 0, i64 22
  %134 = load i32, i32* %133, align 8, !tbaa !5
  %135 = icmp slt i32 %131, %134
  %136 = select i1 %135, i32 %134, i32 %131
  %137 = select i1 %135, i8 87, i8 %132
  %138 = getelementptr inbounds [26 x i32], [26 x i32]* %2, i64 0, i64 23
  %139 = load i32, i32* %138, align 4, !tbaa !5
  %140 = icmp slt i32 %136, %139
  %141 = select i1 %140, i32 %139, i32 %136
  %142 = select i1 %140, i8 88, i8 %137
  %143 = getelementptr inbounds [26 x i32], [26 x i32]* %2, i64 0, i64 24
  %144 = load i32, i32* %143, align 16, !tbaa !5
  %145 = icmp slt i32 %141, %144
  %146 = select i1 %145, i32 %144, i32 %141
  %147 = select i1 %145, i8 89, i8 %142
  %148 = getelementptr inbounds [26 x i32], [26 x i32]* %2, i64 0, i64 25
  %149 = load i32, i32* %148, align 4, !tbaa !5
  %150 = icmp slt i32 %146, %149
  %151 = select i1 %150, i32 %149, i32 %146
  %152 = select i1 %150, i8 90, i8 %147
  %153 = zext i8 %152 to i32
  %154 = call i32 (i8*, ...) @printf(i8* nonnull dereferenceable(1) getelementptr inbounds ([7 x i8], [7 x i8]* @.str.2, i64 0, i64 0), i32 %153, i32 %151)
  %155 = load i32, i32* %1, align 4, !tbaa !5
  %156 = icmp sgt i32 %155, 0
  br i1 %156, label %176, label %201

157:                                              ; preds = %12, %173
  %158 = phi i64 [ 0, %12 ], [ %174, %173 ]
  %159 = getelementptr inbounds [1024 x %struct.book], [1024 x %struct.book]* %3, i64 0, i64 %158, i32 1, i64 0
  %160 = load i8, i8* %159, align 4, !tbaa !11
  %161 = icmp eq i8 %160, 0
  br i1 %161, label %173, label %162

162:                                              ; preds = %157, %162
  %163 = phi i8 [ %171, %162 ], [ %160, %157 ]
  %164 = phi i8* [ %170, %162 ], [ %159, %157 ]
  %165 = sext i8 %163 to i64
  %166 = add nsw i64 %165, -65
  %167 = getelementptr inbounds [26 x i32], [26 x i32]* %2, i64 0, i64 %166
  %168 = load i32, i32* %167, align 4, !tbaa !5
  %169 = add nsw i32 %168, 1
  store i32 %169, i32* %167, align 4, !tbaa !5
  %170 = getelementptr inbounds i8, i8* %164, i64 1
  %171 = load i8, i8* %170, align 1, !tbaa !11
  %172 = icmp eq i8 %171, 0
  br i1 %172, label %173, label %162, !llvm.loop !12

173:                                              ; preds = %162, %157
  %174 = add nuw nsw i64 %158, 1
  %175 = icmp eq i64 %174, %13
  br i1 %175, label %23, label %157, !llvm.loop !13

176:                                              ; preds = %23, %196
  %177 = phi i32 [ %197, %196 ], [ %155, %23 ]
  %178 = phi i64 [ %198, %196 ], [ 0, %23 ]
  %179 = getelementptr inbounds [1024 x %struct.book], [1024 x %struct.book]* %3, i64 0, i64 %178, i32 1, i64 0
  %180 = getelementptr inbounds [1024 x %struct.book], [1024 x %struct.book]* %3, i64 0, i64 %178, i32 0
  %181 = load i8, i8* %179, align 4, !tbaa !11
  %182 = icmp eq i8 %181, 0
  br i1 %182, label %196, label %183

183:                                              ; preds = %176, %190
  %184 = phi i8 [ %192, %190 ], [ %181, %176 ]
  %185 = phi i8* [ %191, %190 ], [ %179, %176 ]
  %186 = icmp eq i8 %184, %152
  br i1 %186, label %187, label %190

187:                                              ; preds = %183
  %188 = load i32, i32* %180, align 16, !tbaa !14
  %189 = call i32 (i8*, ...) @printf(i8* nonnull dereferenceable(1) getelementptr inbounds ([4 x i8], [4 x i8]* @.str.3, i64 0, i64 0), i32 %188)
  br label %190

190:                                              ; preds = %183, %187
  %191 = getelementptr inbounds i8, i8* %185, i64 1
  %192 = load i8, i8* %191, align 1, !tbaa !11
  %193 = icmp eq i8 %192, 0
  br i1 %193, label %194, label %183, !llvm.loop !16

194:                                              ; preds = %190
  %195 = load i32, i32* %1, align 4, !tbaa !5
  br label %196

196:                                              ; preds = %194, %176
  %197 = phi i32 [ %195, %194 ], [ %177, %176 ]
  %198 = add nuw nsw i64 %178, 1
  %199 = sext i32 %197 to i64
  %200 = icmp slt i64 %198, %199
  br i1 %200, label %176, label %201, !llvm.loop !17

201:                                              ; preds = %196, %23
  call void @llvm.lifetime.end.p0i8(i64 32768, i8* nonnull %6) #4
  call void @llvm.lifetime.end.p0i8(i64 104, i8* nonnull %5) #4
  call void @llvm.lifetime.end.p0i8(i64 4, i8* nonnull %4) #4
  ret void
}

; Function Attrs: argmemonly mustprogress nofree nosync nounwind willreturn
declare void @llvm.lifetime.start.p0i8(i64 immarg, i8* nocapture) #1

; Function Attrs: argmemonly mustprogress nofree nounwind willreturn writeonly
declare void @llvm.memset.p0i8.i64(i8* nocapture writeonly, i8, i64, i1 immarg) #2

; Function Attrs: nofree nounwind
declare noundef i32 @__isoc99_scanf(i8* nocapture noundef readonly, ...) local_unnamed_addr #3

; Function Attrs: nofree nounwind
declare noundef i32 @printf(i8* nocapture noundef readonly, ...) local_unnamed_addr #3

; Function Attrs: argmemonly mustprogress nofree nosync nounwind willreturn
declare void @llvm.lifetime.end.p0i8(i64 immarg, i8* nocapture) #1


!llvm.module.flags = !{!0, !1, !2, !3}
!llvm.ident = !{!4}

!0 = !{i32 1, !"wchar_size", i32 4}
!1 = !{i32 7, !"PIC Level", i32 2}
!2 = !{i32 7, !"PIE Level", i32 2}
!3 = !{i32 7, !"uwtable", i32 1}
!4 = !{!"clang version 13.0.0"}
!5 = !{!6, !6, i64 0}
!6 = !{!"int", !7, i64 0}
!7 = !{!"omnipotent char", !8, i64 0}
!8 = !{!"Simple C/C++ TBAA"}
!9 = distinct !{!9, !10}
!10 = !{!"llvm.loop.mustprogress"}
!11 = !{!7, !7, i64 0}
!12 = distinct !{!12, !10}
!13 = distinct !{!13, !10}
!14 = !{!15, !6, i64 0}
!15 = !{!"book", !6, i64 0, !7, i64 4}
!16 = distinct !{!16, !10}
!17 = distinct !{!17, !10}
